target datalayout = "e-m:e-p270:32:32-p271:32:32-p272:64:64-i64:64-i128:128-f80:128-n8:16:32:64-S128"
target triple = "x86_64-pc-linux-gnu"

%struct.bignum_st = type { ptr, i32, i32, i32, i32 }

@.str = private unnamed_addr constant [123 x i8] c"generated/home/dtcxzyw/WorkSpace/Projects/compilers/llvm-opt-benchmark/bench/libquic/libquic/boringssl/crypto/bn/convert.c\00", align 1
@hextable = internal constant [17 x i8] c"0123456789abcdef\00", align 16

; Function Attrs: nounwind uwtable
define hidden ptr @BN_bn2hex(ptr noundef %0) #0 {
  %2 = alloca ptr, align 8
  %3 = alloca ptr, align 8
  %4 = alloca i32, align 4
  %5 = alloca i32, align 4
  %6 = alloca i32, align 4
  %7 = alloca i32, align 4
  %8 = alloca ptr, align 8
  %9 = alloca ptr, align 8
  %10 = alloca i32, align 4
  store ptr %0, ptr %3, align 8, !tbaa !13
  call void @llvm.lifetime.start.p0(i64 4, ptr %4) #7
  call void @llvm.lifetime.start.p0(i64 4, ptr %5) #7
  call void @llvm.lifetime.start.p0(i64 4, ptr %6) #7
  call void @llvm.lifetime.start.p0(i64 4, ptr %7) #7
  store i32 0, ptr %7, align 4, !tbaa !19
  call void @llvm.lifetime.start.p0(i64 8, ptr %8) #7
  call void @llvm.lifetime.start.p0(i64 8, ptr %9) #7
  %11 = load ptr, ptr %3, align 8, !tbaa !13
  %12 = getelementptr inbounds nuw %struct.bignum_st, ptr %11, i32 0, i32 1
  %13 = load i32, ptr %12, align 8, !tbaa !15
  %14 = mul nsw i32 %13, 8
  %15 = mul nsw i32 %14, 2
  %16 = add nsw i32 %15, 2
  %17 = sext i32 %16 to i64
  %18 = call noalias ptr @malloc(i64 noundef %17) #8
  store ptr %18, ptr %8, align 8, !tbaa !6
  %19 = load ptr, ptr %8, align 8, !tbaa !6
  %20 = icmp eq ptr %19, null
  br i1 %20, label %21, label %22

21:                                               ; preds = %1
  call void @ERR_put_error(i32 noundef 3, i32 noundef 0, i32 noundef 65, ptr noundef @.str, i32 noundef 213)
  store ptr null, ptr %2, align 8
  store i32 1, ptr %10, align 4
  br label %94

22:                                               ; preds = %1
  %23 = load ptr, ptr %8, align 8, !tbaa !6
  store ptr %23, ptr %9, align 8, !tbaa !6
  %24 = load ptr, ptr %3, align 8, !tbaa !13
  %25 = getelementptr inbounds nuw %struct.bignum_st, ptr %24, i32 0, i32 3
  %26 = load i32, ptr %25, align 8, !tbaa !20
  %27 = icmp ne i32 %26, 0
  br i1 %27, label %28, label %31

28:                                               ; preds = %22
  %29 = load ptr, ptr %9, align 8, !tbaa !6
  %30 = getelementptr inbounds nuw i8, ptr %29, i32 1
  store ptr %30, ptr %9, align 8, !tbaa !6
  store i8 45, ptr %29, align 1, !tbaa !21
  br label %31

31:                                               ; preds = %28, %22
  %32 = load ptr, ptr %3, align 8, !tbaa !13
  %33 = call i32 @BN_is_zero(ptr noundef %32)
  %34 = icmp ne i32 %33, 0
  br i1 %34, label %35, label %38

35:                                               ; preds = %31
  %36 = load ptr, ptr %9, align 8, !tbaa !6
  %37 = getelementptr inbounds nuw i8, ptr %36, i32 1
  store ptr %37, ptr %9, align 8, !tbaa !6
  store i8 48, ptr %36, align 1, !tbaa !21
  br label %38

38:                                               ; preds = %35, %31
  %39 = load ptr, ptr %3, align 8, !tbaa !13
  %40 = getelementptr inbounds nuw %struct.bignum_st, ptr %39, i32 0, i32 1
  %41 = load i32, ptr %40, align 8, !tbaa !15
  %42 = sub nsw i32 %41, 1
  store i32 %42, ptr %4, align 4, !tbaa !19
  br label %43

43:                                               ; preds = %88, %38
  %44 = load i32, ptr %4, align 4, !tbaa !19
  %45 = icmp sge i32 %44, 0
  br i1 %45, label %46, label %91

46:                                               ; preds = %43
  store i32 56, ptr %5, align 4, !tbaa !19
  br label %47

47:                                               ; preds = %84, %46
  %48 = load i32, ptr %5, align 4, !tbaa !19
  %49 = icmp sge i32 %48, 0
  br i1 %49, label %50, label %87

50:                                               ; preds = %47
  %51 = load ptr, ptr %3, align 8, !tbaa !13
  %52 = getelementptr inbounds nuw %struct.bignum_st, ptr %51, i32 0, i32 0
  %53 = load ptr, ptr %52, align 8, !tbaa !22
  %54 = load i32, ptr %4, align 4, !tbaa !19
  %55 = sext i32 %54 to i64
  %56 = getelementptr inbounds i64, ptr %53, i64 %55
  %57 = load i64, ptr %56, align 8, !tbaa !11
  %58 = load i32, ptr %5, align 4, !tbaa !19
  %59 = sext i32 %58 to i64
  %60 = lshr i64 %57, %59
  %61 = trunc i64 %60 to i32
  %62 = and i32 %61, 255
  store i32 %62, ptr %6, align 4, !tbaa !19
  %63 = load i32, ptr %7, align 4, !tbaa !19
  %64 = icmp ne i32 %63, 0
  br i1 %64, label %68, label %65

65:                                               ; preds = %50
  %66 = load i32, ptr %6, align 4, !tbaa !19
  %67 = icmp ne i32 %66, 0
  br i1 %67, label %68, label %83

68:                                               ; preds = %65, %50
  %69 = load i32, ptr %6, align 4, !tbaa !19
  %70 = ashr i32 %69, 4
  %71 = sext i32 %70 to i64
  %72 = getelementptr inbounds [17 x i8], ptr @hextable, i64 0, i64 %71
  %73 = load i8, ptr %72, align 1, !tbaa !21
  %74 = load ptr, ptr %9, align 8, !tbaa !6
  %75 = getelementptr inbounds nuw i8, ptr %74, i32 1
  store ptr %75, ptr %9, align 8, !tbaa !6
  store i8 %73, ptr %74, align 1, !tbaa !21
  %76 = load i32, ptr %6, align 4, !tbaa !19
  %77 = and i32 %76, 15
  %78 = sext i32 %77 to i64
  %79 = getelementptr inbounds [17 x i8], ptr @hextable, i64 0, i64 %78
  %80 = load i8, ptr %79, align 1, !tbaa !21
  %81 = load ptr, ptr %9, align 8, !tbaa !6
  %82 = getelementptr inbounds nuw i8, ptr %81, i32 1
  store ptr %82, ptr %9, align 8, !tbaa !6
  store i8 %80, ptr %81, align 1, !tbaa !21
  store i32 1, ptr %7, align 4, !tbaa !19
  br label %83

83:                                               ; preds = %68, %65
  br label %84

84:                                               ; preds = %83
  %85 = load i32, ptr %5, align 4, !tbaa !19
  %86 = sub nsw i32 %85, 8
  store i32 %86, ptr %5, align 4, !tbaa !19
  br label %47, !llvm.loop !30

87:                                               ; preds = %47
  br label %88

88:                                               ; preds = %87
  %89 = load i32, ptr %4, align 4, !tbaa !19
  %90 = add nsw i32 %89, -1
  store i32 %90, ptr %4, align 4, !tbaa !19
  br label %43, !llvm.loop !31

91:                                               ; preds = %43
  %92 = load ptr, ptr %9, align 8, !tbaa !6
  store i8 0, ptr %92, align 1, !tbaa !21
  %93 = load ptr, ptr %8, align 8, !tbaa !6
  store ptr %93, ptr %2, align 8
  store i32 1, ptr %10, align 4
  br label %94

94:                                               ; preds = %91, %21
  call void @llvm.lifetime.end.p0(i64 8, ptr %9) #7
  call void @llvm.lifetime.end.p0(i64 8, ptr %8) #7
  call void @llvm.lifetime.end.p0(i64 4, ptr %7) #7
  call void @llvm.lifetime.end.p0(i64 4, ptr %6) #7
  call void @llvm.lifetime.end.p0(i64 4, ptr %5) #7
  call void @llvm.lifetime.end.p0(i64 4, ptr %4) #7
  %95 = load ptr, ptr %2, align 8
  ret ptr %95
}