; Function Attrs: nounwind uwtable
define hidden noalias noundef ptr @BN_bn2hex(ptr noundef %0) local_unnamed_addr #0 {
  %2 = getelementptr inbounds nuw i8, ptr %0, i64 8
  %3 = load i32, ptr %2, align 8, !tbaa !6
  %4 = shl nsw i32 %3, 4
  %5 = or disjoint i32 %4, 2
  %6 = sext i32 %5 to i64
  %7 = tail call noalias ptr @malloc(i64 noundef %6) #10
  %8 = icmp eq ptr %7, null
  br i1 %8, label %9, label %10

9:                                                ; preds = %1
  tail call void @ERR_put_error(i32 noundef 3, i32 noundef 0, i32 noundef 65, ptr noundef nonnull @.str, i32 noundef 213) #9
  br label %44

10:                                               ; preds = %1
  %11 = getelementptr inbounds nuw i8, ptr %0, i64 16
  %12 = load i32, ptr %11, align 8, !tbaa !13
  %.not = icmp eq i32 %12, 0
  br i1 %.not, label %15, label %13

13:                                               ; preds = %10
  %14 = getelementptr inbounds nuw i8, ptr %7, i64 1
  store i8 45, ptr %7, align 1, !tbaa !14
  br label %15

15:                                               ; preds = %13, %10
  %.0 = phi ptr [ %14, %13 ], [ %7, %10 ]
  %16 = tail call i32 @BN_is_zero(ptr noundef nonnull %0) #9
  %.not31 = icmp eq i32 %16, 0
  br i1 %.not31, label %19, label %17

17:                                               ; preds = %15
  %18 = getelementptr inbounds nuw i8, ptr %.0, i64 1
  store i8 48, ptr %.0, align 1, !tbaa !14
  br label %19

19:                                               ; preds = %17, %15
  %.1 = phi ptr [ %18, %17 ], [ %.0, %15 ]
  %20 = load i32, ptr %2, align 8, !tbaa !6
  %21 = icmp sgt i32 %20, 0
  br i1 %21, label %.preheader.preheader, label %._crit_edge

.preheader.preheader:                             ; preds = %19
  %22 = zext nneg i32 %20 to i64
  br label %.preheader

.loopexit:                                        ; preds = %43
  %23 = icmp sgt i64 %indvars.iv40, 1
  br i1 %23, label %.preheader, label %._crit_edge, !llvm.loop !25

.preheader:                                       ; preds = %.preheader.preheader, %.loopexit
  %indvars.iv40 = phi i64 [ %22, %.preheader.preheader ], [ %indvars.iv.next41, %.loopexit ]
  %.237 = phi ptr [ %.1, %.preheader.preheader ], [ %.4, %.loopexit ]
  %.02536 = phi i32 [ 0, %.preheader.preheader ], [ %.227, %.loopexit ]
  %indvars.iv.next41 = add nsw i64 %indvars.iv40, -1
  br label %24

24:                                               ; preds = %.preheader, %43
  %indvars.iv = phi i64 [ 56, %.preheader ], [ %indvars.iv.next, %43 ]
  %.334 = phi ptr [ %.237, %.preheader ], [ %.4, %43 ]
  %.12633 = phi i32 [ %.02536, %.preheader ], [ %.227, %43 ]
  %25 = load ptr, ptr %0, align 8, !tbaa !15
  %26 = getelementptr inbounds nuw i64, ptr %25, i64 %indvars.iv.next41
  %27 = load i64, ptr %26, align 8, !tbaa !16
  %28 = lshr i64 %27, %indvars.iv
  %29 = trunc i64 %28 to i32
  %30 = and i32 %29, 255
  %31 = icmp ne i32 %.12633, 0
  %32 = icmp ne i32 %30, 0
  %or.cond = select i1 %31, i1 true, i1 %32
  br i1 %or.cond, label %33, label %43

33:                                               ; preds = %24
  %34 = lshr i32 %30, 4
  %35 = zext nneg i32 %34 to i64
  %36 = getelementptr inbounds nuw [17 x i8], ptr @hextable, i64 0, i64 %35
  %37 = load i8, ptr %36, align 1, !tbaa !14
  %38 = getelementptr inbounds nuw i8, ptr %.334, i64 1
  store i8 %37, ptr %.334, align 1, !tbaa !14
  %39 = and i64 %28, 15
  %40 = getelementptr inbounds nuw [17 x i8], ptr @hextable, i64 0, i64 %39
  %41 = load i8, ptr %40, align 1, !tbaa !14
  %42 = getelementptr inbounds nuw i8, ptr %.334, i64 2
  store i8 %41, ptr %38, align 1, !tbaa !14
  br label %43

43:                                               ; preds = %33, %24
  %.227 = phi i32 [ 1, %33 ], [ 0, %24 ]
  %.4 = phi ptr [ %42, %33 ], [ %.334, %24 ]
  %indvars.iv.next = add nsw i64 %indvars.iv, -8
  %.not43 = icmp eq i64 %indvars.iv, 0
  br i1 %.not43, label %.loopexit, label %24, !llvm.loop !26

._crit_edge:                                      ; preds = %.loopexit, %19
  %.2.lcssa = phi ptr [ %.1, %19 ], [ %.4, %.loopexit ]
  store i8 0, ptr %.2.lcssa, align 1, !tbaa !14
  br label %44

44:                                               ; preds = %._crit_edge, %9
  ret ptr %7
}